; Function Attrs: uwtable
define hidden noundef zeroext i1 @_ZThn48_N2bv6solver5visitEP4expr(ptr noundef %0, ptr noundef %1) unnamed_addr #7 align 2 {
  %3 = getelementptr inbounds nuw i8, ptr %1, i64 4
  %4 = load i32, ptr %3, align 4
  %5 = and i32 %4, 65535
  %6 = icmp eq i32 %5, 0
  br i1 %6, label %7, label %18

7:                                                ; preds = %2
  %8 = getelementptr inbounds nuw i8, ptr %1, i64 16
  %9 = load ptr, ptr %8, align 8, !tbaa !90
  %10 = getelementptr inbounds nuw i8, ptr %9, i64 24
  %11 = load ptr, ptr %10, align 8, !tbaa !96
  %12 = icmp eq ptr %11, null
  br i1 %12, label %_ZNK3app13get_family_idEv.exit.i, label %13

13:                                               ; preds = %7
  %14 = load i32, ptr %11, align 8, !tbaa !99
  br label %_ZNK3app13get_family_idEv.exit.i

_ZNK3app13get_family_idEv.exit.i:                 ; preds = %13, %7
  %15 = phi i32 [ %14, %13 ], [ -1, %7 ]
  %16 = getelementptr inbounds i8, ptr %0, i64 -36
  %17 = load i32, ptr %16, align 4, !tbaa !65
  %.not.i = icmp eq i32 %15, %17
  br i1 %.not.i, label %24, label %18

18:                                               ; preds = %_ZNK3app13get_family_idEv.exit.i, %2
  %19 = getelementptr inbounds nuw i8, ptr %0, i64 32
  %20 = load ptr, ptr %19, align 8, !tbaa !19
  %21 = load ptr, ptr %20, align 8, !tbaa !42
  %22 = getelementptr inbounds nuw i8, ptr %21, i64 440
  %23 = load ptr, ptr %22, align 8
  tail call void %23(ptr noundef nonnull align 8 dereferenceable(8456) %20, ptr noundef nonnull %1)
  br label %_ZN2bv6solver5visitEP4expr.exit

24:                                               ; preds = %_ZNK3app13get_family_idEv.exit.i
  %25 = getelementptr inbounds nuw i8, ptr %0, i64 16
  %26 = load ptr, ptr %25, align 8, !tbaa !103
  %27 = icmp eq ptr %26, null
  br i1 %27, label %34, label %28

28:                                               ; preds = %24
  %29 = getelementptr inbounds i8, ptr %26, i64 -4
  %30 = load i32, ptr %29, align 4, !tbaa !47
  %31 = getelementptr inbounds i8, ptr %26, i64 -8
  %32 = load i32, ptr %31, align 4, !tbaa !47
  %33 = icmp eq i32 %30, %32
  br i1 %33, label %34, label %_ZN6vectorIN3sat6eframeELb0EjE9push_backEOS1_.exit.i

34:                                               ; preds = %28, %24
  tail call void @_ZN6vectorIN3sat6eframeELb0EjE13expand_vectorEv(ptr noundef nonnull align 8 dereferenceable(8) %25)
  %.pre.i.i = load ptr, ptr %25, align 8, !tbaa !103
  %.phi.trans.insert.i.i = getelementptr inbounds i8, ptr %.pre.i.i, i64 -4
  %.pre2.i.i = load i32, ptr %.phi.trans.insert.i.i, align 4, !tbaa !47
  br label %_ZN6vectorIN3sat6eframeELb0EjE9push_backEOS1_.exit.i

_ZN6vectorIN3sat6eframeELb0EjE9push_backEOS1_.exit.i: ; preds = %34, %28
  %35 = phi i32 [ %.pre2.i.i, %34 ], [ %30, %28 ]
  %36 = phi ptr [ %.pre.i.i, %34 ], [ %26, %28 ]
  %37 = zext i32 %35 to i64
  %38 = getelementptr inbounds nuw %"struct.sat::eframe", ptr %36, i64 %37
  store ptr %1, ptr %38, align 8, !tbaa !104
  %.sroa.4.0..sroa_idx.i = getelementptr inbounds nuw i8, ptr %38, i64 8
  store i32 0, ptr %.sroa.4.0..sroa_idx.i, align 8, !tbaa !47
  %39 = getelementptr inbounds i8, ptr %36, i64 -4
  %40 = add i32 %35, 1
  store i32 %40, ptr %39, align 4, !tbaa !47
  br label %_ZN2bv6solver5visitEP4expr.exit

_ZN2bv6solver5visitEP4expr.exit:                  ; preds = %18, %_ZN6vectorIN3sat6eframeELb0EjE9push_backEOS1_.exit.i
  %.0.i = phi i1 [ true, %18 ], [ false, %_ZN6vectorIN3sat6eframeELb0EjE9push_backEOS1_.exit.i ]
  ret i1 %.0.i
}